target datalayout = "e-m:e-p270:32:32-p271:32:32-p272:64:64-i64:64-i128:128-f80:128-n8:16:32:64-S128"
target triple = "x86_64-pc-linux-gnu"

%"class.pxrInternal_v0_24__pxrReserved__::TfCallContext" = type <{ ptr, ptr, i64, ptr, i8, [7 x i8] }>

@.str = private unnamed_addr constant [119 x i8] c"generated/home/dtcxzyw/WorkSpace/Projects/compilers/llvm-opt-benchmark/bench/openusd/OpenUSD/pxr/imaging/hio/types.cpp\00", align 1
@.str.4 = private unnamed_addr constant [15 x i8] c"Missing Format\00", align 1
@__func__._ZN32pxrInternal_v0_24__pxrReserved__20HioGetDataSizeOfTypeENS_7HioTypeE = private unnamed_addr constant [21 x i8] c"HioGetDataSizeOfType\00", align 1
@__PRETTY_FUNCTION__._ZN32pxrInternal_v0_24__pxrReserved__20HioGetDataSizeOfTypeENS_7HioTypeE = private unnamed_addr constant [71 x i8] c"size_t pxrInternal_v0_24__pxrReserved__::HioGetDataSizeOfType(HioType)\00", align 1

; Function Attrs: mustprogress nounwind uwtable
define linkonce_odr void @_ZN32pxrInternal_v0_24__pxrReserved__13TfCallContextC2EPKcS2_mS2_(ptr noundef nonnull align 8 dereferenceable(33) %0, ptr noundef %1, ptr noundef %2, i64 noundef %3, ptr noundef %4) unnamed_addr #2 comdat align 2 {
  %6 = alloca ptr, align 8
  %7 = alloca ptr, align 8
  %8 = alloca ptr, align 8
  %9 = alloca i64, align 8
  %10 = alloca ptr, align 8
  store ptr %0, ptr %6, align 8
  store ptr %1, ptr %7, align 8
  store ptr %2, ptr %8, align 8
  store i64 %3, ptr %9, align 8
  store ptr %4, ptr %10, align 8
  %11 = load ptr, ptr %6, align 8
  %12 = getelementptr inbounds nuw %"class.pxrInternal_v0_24__pxrReserved__::TfCallContext", ptr %11, i32 0, i32 0
  %13 = load ptr, ptr %7, align 8
  store ptr %13, ptr %12, align 8
  %14 = getelementptr inbounds nuw %"class.pxrInternal_v0_24__pxrReserved__::TfCallContext", ptr %11, i32 0, i32 1
  %15 = load ptr, ptr %8, align 8
  store ptr %15, ptr %14, align 8
  %16 = getelementptr inbounds nuw %"class.pxrInternal_v0_24__pxrReserved__::TfCallContext", ptr %11, i32 0, i32 2
  %17 = load i64, ptr %9, align 8
  store i64 %17, ptr %16, align 8
  %18 = getelementptr inbounds nuw %"class.pxrInternal_v0_24__pxrReserved__::TfCallContext", ptr %11, i32 0, i32 3
  %19 = load ptr, ptr %10, align 8
  store ptr %19, ptr %18, align 8
  %20 = getelementptr inbounds nuw %"class.pxrInternal_v0_24__pxrReserved__::TfCallContext", ptr %11, i32 0, i32 4
  store i8 0, ptr %20, align 8
  ret void
}

; Function Attrs: mustprogress uwtable
define noundef i64 @_ZN32pxrInternal_v0_24__pxrReserved__20HioGetDataSizeOfTypeENS_7HioTypeE(i32 noundef %0) #0 {
  %2 = alloca i64, align 8
  %3 = alloca i32, align 4
  %4 = alloca %"class.pxrInternal_v0_24__pxrReserved__::TfCallContext", align 8
  store i32 %0, ptr %3, align 4
  %5 = load i32, ptr %3, align 4
  switch i32 %5, label %11 [
    i32 10, label %6
    i32 0, label %7
    i32 2, label %7
    i32 1, label %7
    i32 3, label %8
    i32 4, label %8
    i32 7, label %8
    i32 5, label %9
    i32 6, label %9
    i32 8, label %9
    i32 9, label %10
  ]

6:                                                ; preds = %1
  store i64 0, ptr %2, align 8
  br label %12

7:                                                ; preds = %1, %1, %1
  store i64 1, ptr %2, align 8
  br label %12

8:                                                ; preds = %1, %1, %1
  store i64 2, ptr %2, align 8
  br label %12

9:                                                ; preds = %1, %1, %1
  store i64 4, ptr %2, align 8
  br label %12

10:                                               ; preds = %1
  store i64 8, ptr %2, align 8
  br label %12

11:                                               ; preds = %1
  call void @_ZN32pxrInternal_v0_24__pxrReserved__13TfCallContextC2EPKcS2_mS2_(ptr noundef nonnull align 8 dereferenceable(33) %4, ptr noundef @.str, ptr noundef @__func__._ZN32pxrInternal_v0_24__pxrReserved__20HioGetDataSizeOfTypeENS_7HioTypeE, i64 noundef 246, ptr noundef @__PRETTY_FUNCTION__._ZN32pxrInternal_v0_24__pxrReserved__20HioGetDataSizeOfTypeENS_7HioTypeE)
  call void (ptr, i32, ptr, ...) @_ZN32pxrInternal_v0_24__pxrReserved__18Tf_PostErrorHelperERKNS_13TfCallContextENS_16TfDiagnosticTypeEPKcz(ptr noundef nonnull align 8 dereferenceable(33) %4, i32 noundef 1, ptr noundef @.str.4)
  store i64 1, ptr %2, align 8
  br label %12

12:                                               ; preds = %11, %10, %9, %8, %7, %6
  %13 = load i64, ptr %2, align 8
  ret i64 %13
}