; Function Attrs: mustprogress uwtable
define noundef range(i64 0, 9) i64 @_ZN32pxrInternal_v0_24__pxrReserved__20HioGetDataSizeOfTypeENS_7HioTypeE(i32 noundef %0) local_unnamed_addr #0 {
  %2 = alloca %"class.pxrInternal_v0_24__pxrReserved__::TfCallContext", align 8
  %3 = icmp ult i32 %0, 11
  br i1 %3, label %switch.lookup, label %4

4:                                                ; preds = %1
  store ptr @.str, ptr %2, align 8
  %5 = getelementptr inbounds nuw i8, ptr %2, i64 8
  store ptr @__func__._ZN32pxrInternal_v0_24__pxrReserved__20HioGetDataSizeOfTypeENS_7HioTypeE, ptr %5, align 8
  %6 = getelementptr inbounds nuw i8, ptr %2, i64 16
  store i64 246, ptr %6, align 8
  %7 = getelementptr inbounds nuw i8, ptr %2, i64 24
  store ptr @__PRETTY_FUNCTION__._ZN32pxrInternal_v0_24__pxrReserved__20HioGetDataSizeOfTypeENS_7HioTypeE, ptr %7, align 8
  %8 = getelementptr inbounds nuw i8, ptr %2, i64 32
  store i8 0, ptr %8, align 8
  call void (ptr, i32, ptr, ...) @_ZN32pxrInternal_v0_24__pxrReserved__18Tf_PostErrorHelperERKNS_13TfCallContextENS_16TfDiagnosticTypeEPKcz(ptr noundef nonnull align 8 dereferenceable(33) %2, i32 noundef 1, ptr noundef nonnull @.str.4)
  br label %10

switch.lookup:                                    ; preds = %1
  %9 = zext nneg i32 %0 to i64
  %switch.gep = getelementptr inbounds [11 x i64], ptr @switch.table._ZN32pxrInternal_v0_24__pxrReserved__20HioGetDataSizeOfTypeENS_7HioTypeE, i64 0, i64 %9
  %switch.load = load i64, ptr %switch.gep, align 8
  br label %10

10:                                               ; preds = %switch.lookup, %4
  %.0 = phi i64 [ 1, %4 ], [ %switch.load, %switch.lookup ]
  ret i64 %.0
}